target datalayout = "e-m:e-p270:32:32-p271:32:32-p272:64:64-i64:64-i128:128-f80:128-n8:16:32:64-S128"
target triple = "x86_64-pc-linux-gnu"

%"class.sat::literal" = type { i32 }
%class.approx_set_tpl = type { i32 }
%"class.sat::clause" = type { i32, i32, i32, %class.approx_set_tpl, i32, [0 x %"class.sat::literal"] }

; Function Attrs: mustprogress nounwind uwtable
define linkonce_odr hidden noundef ptr @_ZNK3sat6clause3endEv(ptr noundef nonnull align 4 dereferenceable(20) %0) #5 comdat align 2 {
  %2 = alloca ptr, align 8
  store ptr %0, ptr %2, align 8, !tbaa !200
  %3 = load ptr, ptr %2, align 8
  %4 = getelementptr inbounds nuw %"class.sat::clause", ptr %3, i32 0, i32 5
  %5 = getelementptr inbounds [0 x %"class.sat::literal"], ptr %4, i64 0, i64 0
  %6 = getelementptr inbounds nuw %"class.sat::clause", ptr %3, i32 0, i32 1
  %7 = load i32, ptr %6, align 4, !tbaa !241
  %8 = zext i32 %7 to i64
  %9 = getelementptr inbounds nuw %"class.sat::literal", ptr %5, i64 %8
  ret ptr %9
}

; Function Attrs: mustprogress nounwind uwtable
define linkonce_odr hidden noundef ptr @_ZNK3sat6clause5beginEv(ptr noundef nonnull align 4 dereferenceable(20) %0) #5 comdat align 2 {
  %2 = alloca ptr, align 8
  store ptr %0, ptr %2, align 8, !tbaa !200
  %3 = load ptr, ptr %2, align 8
  %4 = getelementptr inbounds nuw %"class.sat::clause", ptr %3, i32 0, i32 5
  %5 = getelementptr inbounds [0 x %"class.sat::literal"], ptr %4, i64 0, i64 0
  ret ptr %5
}

; Function Attrs: mustprogress uwtable
define hidden void @_ZN3sat12asymm_branch4sortERNS_3bigERKNS_6clauseE(ptr noundef nonnull align 8 dereferenceable(128) %0, ptr noundef nonnull align 8 dereferenceable(80) %1, ptr noundef nonnull align 4 dereferenceable(20) %2) #4 align 2 {
  %4 = alloca ptr, align 8
  %5 = alloca ptr, align 8
  %6 = alloca ptr, align 8
  store ptr %0, ptr %4, align 8, !tbaa !3
  store ptr %1, ptr %5, align 8, !tbaa !49
  store ptr %2, ptr %6, align 8, !tbaa !200
  %7 = load ptr, ptr %4, align 8
  %8 = load ptr, ptr %5, align 8, !tbaa !49
  %9 = load ptr, ptr %6, align 8, !tbaa !200
  %10 = call noundef ptr @_ZNK3sat6clause5beginEv(ptr noundef nonnull align 4 dereferenceable(20) %9)
  %11 = load ptr, ptr %6, align 8, !tbaa !200
  %12 = call noundef ptr @_ZNK3sat6clause3endEv(ptr noundef nonnull align 4 dereferenceable(20) %11)
  call void @_ZN3sat12asymm_branch4sortERNS_3bigEPKNS_7literalES5_(ptr noundef nonnull align 8 dereferenceable(128) %7, ptr noundef nonnull align 8 dereferenceable(80) %8, ptr noundef %10, ptr noundef %12)
  ret void
}