; Function Attrs: mustprogress uwtable
define hidden void @_ZN3sat12asymm_branch4sortERNS_3bigERKNS_6clauseE(ptr noundef nonnull align 8 dereferenceable(128) %0, ptr noundef nonnull align 8 dereferenceable(80) %1, ptr noundef nonnull align 4 captures(address) dereferenceable(20) %2) local_unnamed_addr #3 align 2 {
  %4 = getelementptr inbounds nuw i8, ptr %2, i64 20
  %5 = getelementptr inbounds nuw i8, ptr %2, i64 4
  %6 = load i32, ptr %5, align 4, !tbaa !202
  %7 = zext i32 %6 to i64
  %8 = getelementptr inbounds nuw %"class.sat::literal", ptr %4, i64 %7
  tail call void @_ZN3sat12asymm_branch4sortERNS_3bigEPKNS_7literalES5_(ptr noundef nonnull align 8 dereferenceable(128) %0, ptr noundef nonnull align 8 dereferenceable(80) %1, ptr noundef nonnull %4, ptr noundef nonnull %8)
  ret void
}